; Function Attrs: nounwind sspstrong uwtable
define internal i64 @random_get_seed(i64 noundef %0) #0 {
  %2 = tail call ptr @rb_check_typeddata(i64 noundef %0, ptr noundef nonnull @rb_random_data_type_1_0) #23
  %3 = inttoptr i64 %0 to ptr
  %4 = getelementptr inbounds nuw i8, ptr %3, i64 16
  %5 = load ptr, ptr %4, align 8, !tbaa !31
  %6 = icmp eq ptr %5, @random_mt_type
  br i1 %6, label %7, label %get_rnd.exit

7:                                                ; preds = %1
  %8 = getelementptr inbounds nuw i8, ptr %2, i64 2504
  %9 = load ptr, ptr %8, align 8, !tbaa !12
  %.not.i.i.i = icmp eq ptr %9, null
  br i1 %.not.i.i.i, label %10, label %get_rnd.exit

10:                                               ; preds = %7
  %11 = tail call i64 @random_seed(i64 poison)
  %12 = tail call fastcc i64 @rand_init(ptr noundef nonnull @random_mt_if, ptr noundef nonnull %2, i64 noundef %11)
  store i64 %11, ptr %2, align 8, !tbaa !19
  br label %get_rnd.exit

get_rnd.exit:                                     ; preds = %1, %7, %10
  %13 = load i64, ptr %2, align 8, !tbaa !26
  ret i64 %13
}